; Function Attrs: mustprogress nounwind uwtable
define dso_local noundef nonnull align 8 dereferenceable(48) ptr @_ZNK4llvm10bfi_detail9BlockMass5printERNS_11raw_ostreamE(ptr noundef nonnull readonly align 8 captures(none) dereferenceable(8) %0, ptr noundef nonnull returned align 8 dereferenceable(48) %1) local_unnamed_addr #0 align 2 {
  %3 = getelementptr inbounds nuw i8, ptr %1, i64 32
  %4 = getelementptr inbounds nuw i8, ptr %1, i64 24
  br label %5

5:                                                ; preds = %2, %_ZN4llvm11raw_ostreamlsEc.exit
  %indvars.iv = phi i64 [ 0, %2 ], [ %indvars.iv.next, %_ZN4llvm11raw_ostreamlsEc.exit ]
  %6 = load i64, ptr %0, align 8
  %7 = shl nuw nsw i64 %indvars.iv, 2
  %8 = sub nuw nsw i64 60, %7
  %9 = lshr i64 %6, %8
  %10 = trunc i64 %9 to i32
  %11 = and i32 %10, 15
  %12 = icmp samesign ult i32 %11, 10
  %13 = trunc nuw nsw i32 %11 to i8
  %14 = or disjoint i8 %13, 48
  %15 = add nuw nsw i8 %13, 87
  %.0.i = select i1 %12, i8 %14, i8 %15
  %16 = load ptr, ptr %3, align 8
  %17 = load ptr, ptr %4, align 8
  %.not.i = icmp ult ptr %16, %17
  br i1 %.not.i, label %20, label %18

18:                                               ; preds = %5
  %19 = tail call noundef nonnull align 8 dereferenceable(48) ptr @_ZN4llvm11raw_ostream5writeEh(ptr noundef nonnull align 8 dereferenceable(48) %1, i8 noundef zeroext %.0.i) #23
  br label %_ZN4llvm11raw_ostreamlsEc.exit

20:                                               ; preds = %5
  %21 = getelementptr inbounds nuw i8, ptr %16, i64 1
  store ptr %21, ptr %3, align 8
  store i8 %.0.i, ptr %16, align 1
  br label %_ZN4llvm11raw_ostreamlsEc.exit

_ZN4llvm11raw_ostreamlsEc.exit:                   ; preds = %18, %20
  %indvars.iv.next = add nuw nsw i64 %indvars.iv, 1
  %exitcond.not = icmp eq i64 %indvars.iv.next, 16
  br i1 %exitcond.not, label %22, label %5, !llvm.loop !4

22:                                               ; preds = %_ZN4llvm11raw_ostreamlsEc.exit
  ret ptr %1
}